target datalayout = "e-m:e-p270:32:32-p271:32:32-p272:64:64-i64:64-i128:128-f80:128-n8:16:32:64-S128"
target triple = "x86_64-pc-linux-gnu"

%struct.If_Cut_t_ = type <{ float, float, float, float, i32, i32, i32, i64, [0 x i32] }>
%struct.If_Man_t_ = type { ptr, ptr, ptr, ptr, ptr, ptr, ptr, ptr, [5 x i32], i32, float, float, float, float, i32, float, i32, i32, [4 x ptr], ptr, i32, i32, i32, ptr, [3 x [32 x i32]], i32, i32, i32, ptr, ptr, ptr, ptr, ptr, ptr, ptr, i32, i32, i32, [16 x i32], i32, i32, i32, i32, ptr, ptr, ptr, ptr, ptr, i32, i32, [32 x i32], [32 x i32], i32, i32, i32, i32, ptr, [16 x ptr], [16 x ptr], [16 x ptr], [16 x ptr], [16 x ptr], [16 x ptr], [16 x ptr], ptr, ptr, ptr, ptr, [32 x i8], i32, i32, i32, [6 x i64], [2 x i32], [2 x i32], ptr, [15 x i32], ptr, ptr, ptr, [16 x i32], ptr, ptr, ptr, ptr, [2 x i32], [2 x i32], [2 x ptr], ptr }
%struct.If_Obj_t_ = type { i32, i32, i32, i32, i32, i32, ptr, ptr, ptr, float, float, float, %union.anon, ptr, %struct.If_Cut_t_ }
%union.anon = type { ptr }
%struct.If_Par_t_ = type { i32, i32, i32, i32, i32, i32, float, float, i32, i32, i32, i32, i32, i32, i32, i32, i32, i32, i32, i32, i32, i32, i32, i32, i32, i32, i32, i32, i32, i32, i32, i32, i32, i32, i32, i32, i32, i32, i32, i32, i32, i32, i32, i32, i32, i32, i32, i32, i32, i32, ptr, i32, float, i32, i32, i32, i32, i32, i32, i32, i32, i32, i32, i32, i32, i32, i32, float, float, float, ptr, ptr, ptr, ptr, ptr, ptr, ptr, ptr, ptr }
%struct.Vec_Ptr_t_ = type { i32, i32, ptr }

@.str = private unnamed_addr constant [80 x i8] c"Delay optimization of latch path is not performed because there is no latches.\0A\00", align 1

; Function Attrs: inlinehint nounwind uwtable
define internal ptr @If_ObjCutBest(ptr noundef %0) #2 {
  %2 = alloca ptr, align 8
  store ptr %0, ptr %2, align 8, !tbaa !16
  %3 = load ptr, ptr %2, align 8, !tbaa !16
  %4 = getelementptr inbounds nuw %struct.If_Obj_t_, ptr %3, i32 0, i32 14
  ret ptr %4
}

; Function Attrs: inlinehint nounwind uwtable
define internal i32 @Vec_PtrSize(ptr noundef %0) #2 {
  %2 = alloca ptr, align 8
  store ptr %0, ptr %2, align 8, !tbaa !81
  %3 = load ptr, ptr %2, align 8, !tbaa !81
  %4 = getelementptr inbounds nuw %struct.Vec_Ptr_t_, ptr %3, i32 0, i32 1
  %5 = load i32, ptr %4, align 4, !tbaa !86
  ret i32 %5
}

; Function Attrs: inlinehint nounwind uwtable
define internal float @If_ObjArrTime(ptr noundef %0) #2 {
  %2 = alloca ptr, align 8
  store ptr %0, ptr %2, align 8, !tbaa !16
  %3 = load ptr, ptr %2, align 8, !tbaa !16
  %4 = call ptr @If_ObjCutBest(ptr noundef %3)
  %5 = getelementptr inbounds nuw %struct.If_Cut_t_, ptr %4, i32 0, i32 3
  %6 = load float, ptr %5, align 4, !tbaa !18
  ret float %6
}

; Function Attrs: inlinehint nounwind uwtable
define internal ptr @If_ObjFanin0(ptr noundef %0) #2 {
  %2 = alloca ptr, align 8
  store ptr %0, ptr %2, align 8, !tbaa !16
  %3 = load ptr, ptr %2, align 8, !tbaa !16
  %4 = getelementptr inbounds nuw %struct.If_Obj_t_, ptr %3, i32 0, i32 6
  %5 = load ptr, ptr %4, align 8, !tbaa !85
  ret ptr %5
}

; Function Attrs: inlinehint nounwind uwtable
define internal ptr @Vec_PtrEntry(ptr noundef %0, i32 noundef %1) #2 {
  %3 = alloca ptr, align 8
  %4 = alloca i32, align 4
  store ptr %0, ptr %3, align 8, !tbaa !81
  store i32 %1, ptr %4, align 4, !tbaa !14
  %5 = load ptr, ptr %3, align 8, !tbaa !81
  %6 = getelementptr inbounds nuw %struct.Vec_Ptr_t_, ptr %5, i32 0, i32 2
  %7 = load ptr, ptr %6, align 8, !tbaa !82
  %8 = load i32, ptr %4, align 4, !tbaa !14
  %9 = sext i32 %8 to i64
  %10 = getelementptr inbounds ptr, ptr %7, i64 %9
  %11 = load ptr, ptr %10, align 8, !tbaa !84
  ret ptr %11
}

; Function Attrs: inlinehint nounwind uwtable
define internal i32 @If_ManCoNum(ptr noundef %0) #2 {
  %2 = alloca ptr, align 8
  store ptr %0, ptr %2, align 8, !tbaa !3
  %3 = load ptr, ptr %2, align 8, !tbaa !3
  %4 = getelementptr inbounds nuw %struct.If_Man_t_, ptr %3, i32 0, i32 8
  %5 = getelementptr inbounds [5 x i32], ptr %4, i64 0, i64 3
  %6 = load i32, ptr %5, align 4, !tbaa !14
  ret i32 %6
}

; Function Attrs: nounwind uwtable
define float @If_ManDelayMax(ptr noundef %0, i32 noundef %1) #0 {
  %3 = alloca ptr, align 8
  %4 = alloca i32, align 4
  %5 = alloca ptr, align 8
  %6 = alloca float, align 4
  %7 = alloca i32, align 4
  store ptr %0, ptr %3, align 8, !tbaa !3
  store i32 %1, ptr %4, align 4, !tbaa !14
  call void @llvm.lifetime.start.p0(i64 8, ptr %5) #7
  call void @llvm.lifetime.start.p0(i64 4, ptr %6) #7
  call void @llvm.lifetime.start.p0(i64 4, ptr %7) #7
  %8 = load ptr, ptr %3, align 8, !tbaa !3
  %9 = getelementptr inbounds nuw %struct.If_Man_t_, ptr %8, i32 0, i32 1
  %10 = load ptr, ptr %9, align 8, !tbaa !42
  %11 = getelementptr inbounds nuw %struct.If_Par_t_, ptr %10, i32 0, i32 17
  %12 = load i32, ptr %11, align 4, !tbaa !71
  %13 = icmp ne i32 %12, 0
  br i1 %13, label %14, label %33

14:                                               ; preds = %2
  %15 = load ptr, ptr %3, align 8, !tbaa !3
  %16 = getelementptr inbounds nuw %struct.If_Man_t_, ptr %15, i32 0, i32 1
  %17 = load ptr, ptr %16, align 8, !tbaa !42
  %18 = getelementptr inbounds nuw %struct.If_Par_t_, ptr %17, i32 0, i32 61
  %19 = load i32, ptr %18, align 8, !tbaa !72
  %20 = icmp eq i32 %19, 0
  br i1 %20, label %28, label %21

21:                                               ; preds = %14
  %22 = load ptr, ptr %3, align 8, !tbaa !3
  %23 = getelementptr inbounds nuw %struct.If_Man_t_, ptr %22, i32 0, i32 1
  %24 = load ptr, ptr %23, align 8, !tbaa !42
  %25 = getelementptr inbounds nuw %struct.If_Par_t_, ptr %24, i32 0, i32 62
  %26 = load i32, ptr %25, align 4, !tbaa !73
  %27 = icmp eq i32 %26, 0
  br i1 %27, label %28, label %33

28:                                               ; preds = %21, %14
  call void (i32, ptr, ...) @Abc_Print(i32 noundef 0, ptr noundef @.str)
  %29 = load ptr, ptr %3, align 8, !tbaa !3
  %30 = getelementptr inbounds nuw %struct.If_Man_t_, ptr %29, i32 0, i32 1
  %31 = load ptr, ptr %30, align 8, !tbaa !42
  %32 = getelementptr inbounds nuw %struct.If_Par_t_, ptr %31, i32 0, i32 17
  store i32 0, ptr %32, align 4, !tbaa !71
  br label %33

33:                                               ; preds = %28, %21, %2
  store float 0xC415AF1D80000000, ptr %6, align 4, !tbaa !21
  %34 = load i32, ptr %4, align 4, !tbaa !14
  %35 = icmp ne i32 %34, 0
  br i1 %35, label %36, label %76

36:                                               ; preds = %33
  %37 = load ptr, ptr %3, align 8, !tbaa !3
  %38 = getelementptr inbounds nuw %struct.If_Man_t_, ptr %37, i32 0, i32 1
  %39 = load ptr, ptr %38, align 8, !tbaa !42
  %40 = getelementptr inbounds nuw %struct.If_Par_t_, ptr %39, i32 0, i32 64
  %41 = load i32, ptr %40, align 4, !tbaa !74
  store i32 %41, ptr %7, align 4, !tbaa !14
  br label %42

42:                                               ; preds = %72, %36
  %43 = load i32, ptr %7, align 4, !tbaa !14
  %44 = load ptr, ptr %3, align 8, !tbaa !3
  %45 = call i32 @If_ManCoNum(ptr noundef %44)
  %46 = load ptr, ptr %3, align 8, !tbaa !3
  %47 = getelementptr inbounds nuw %struct.If_Man_t_, ptr %46, i32 0, i32 1
  %48 = load ptr, ptr %47, align 8, !tbaa !42
  %49 = getelementptr inbounds nuw %struct.If_Par_t_, ptr %48, i32 0, i32 62
  %50 = load i32, ptr %49, align 4, !tbaa !73
  %51 = sub nsw i32 %45, %50
  %52 = icmp slt i32 %43, %51
  br i1 %52, label %53, label %59

53:                                               ; preds = %42
  %54 = load ptr, ptr %3, align 8, !tbaa !3
  %55 = getelementptr inbounds nuw %struct.If_Man_t_, ptr %54, i32 0, i32 4
  %56 = load ptr, ptr %55, align 8, !tbaa !75
  %57 = load i32, ptr %7, align 4, !tbaa !14
  %58 = call ptr @Vec_PtrEntry(ptr noundef %56, i32 noundef %57)
  store ptr %58, ptr %5, align 8, !tbaa !16
  br label %59

59:                                               ; preds = %53, %42
  %60 = phi i1 [ false, %42 ], [ true, %53 ]
  br i1 %60, label %61, label %75

61:                                               ; preds = %59
  %62 = load float, ptr %6, align 4, !tbaa !21
  %63 = load ptr, ptr %5, align 8, !tbaa !16
  %64 = call ptr @If_ObjFanin0(ptr noundef %63)
  %65 = call float @If_ObjArrTime(ptr noundef %64)
  %66 = fcmp olt float %62, %65
  br i1 %66, label %67, label %71

67:                                               ; preds = %61
  %68 = load ptr, ptr %5, align 8, !tbaa !16
  %69 = call ptr @If_ObjFanin0(ptr noundef %68)
  %70 = call float @If_ObjArrTime(ptr noundef %69)
  store float %70, ptr %6, align 4, !tbaa !21
  br label %71

71:                                               ; preds = %67, %61
  br label %72

72:                                               ; preds = %71
  %73 = load i32, ptr %7, align 4, !tbaa !14
  %74 = add nsw i32 %73, 1
  store i32 %74, ptr %7, align 4, !tbaa !14
  br label %42, !llvm.loop !76

75:                                               ; preds = %59
  br label %154

76:                                               ; preds = %33
  %77 = load ptr, ptr %3, align 8, !tbaa !3
  %78 = getelementptr inbounds nuw %struct.If_Man_t_, ptr %77, i32 0, i32 1
  %79 = load ptr, ptr %78, align 8, !tbaa !42
  %80 = getelementptr inbounds nuw %struct.If_Par_t_, ptr %79, i32 0, i32 17
  %81 = load i32, ptr %80, align 4, !tbaa !71
  %82 = icmp ne i32 %81, 0
  br i1 %82, label %83, label %122

83:                                               ; preds = %76
  %84 = load ptr, ptr %3, align 8, !tbaa !3
  %85 = call i32 @If_ManCoNum(ptr noundef %84)
  %86 = load ptr, ptr %3, align 8, !tbaa !3
  %87 = getelementptr inbounds nuw %struct.If_Man_t_, ptr %86, i32 0, i32 1
  %88 = load ptr, ptr %87, align 8, !tbaa !42
  %89 = getelementptr inbounds nuw %struct.If_Par_t_, ptr %88, i32 0, i32 62
  %90 = load i32, ptr %89, align 4, !tbaa !73
  %91 = sub nsw i32 %85, %90
  store i32 %91, ptr %7, align 4, !tbaa !14
  br label %92

92:                                               ; preds = %118, %83
  %93 = load i32, ptr %7, align 4, !tbaa !14
  %94 = load ptr, ptr %3, align 8, !tbaa !3
  %95 = getelementptr inbounds nuw %struct.If_Man_t_, ptr %94, i32 0, i32 4
  %96 = load ptr, ptr %95, align 8, !tbaa !75
  %97 = call i32 @Vec_PtrSize(ptr noundef %96)
  %98 = icmp slt i32 %93, %97
  br i1 %98, label %99, label %105

99:                                               ; preds = %92
  %100 = load ptr, ptr %3, align 8, !tbaa !3
  %101 = getelementptr inbounds nuw %struct.If_Man_t_, ptr %100, i32 0, i32 4
  %102 = load ptr, ptr %101, align 8, !tbaa !75
  %103 = load i32, ptr %7, align 4, !tbaa !14
  %104 = call ptr @Vec_PtrEntry(ptr noundef %102, i32 noundef %103)
  store ptr %104, ptr %5, align 8, !tbaa !16
  br label %105

105:                                              ; preds = %99, %92
  %106 = phi i1 [ false, %92 ], [ true, %99 ]
  br i1 %106, label %107, label %121

107:                                              ; preds = %105
  %108 = load float, ptr %6, align 4, !tbaa !21
  %109 = load ptr, ptr %5, align 8, !tbaa !16
  %110 = call ptr @If_ObjFanin0(ptr noundef %109)
  %111 = call float @If_ObjArrTime(ptr noundef %110)
  %112 = fcmp olt float %108, %111
  br i1 %112, label %113, label %117

113:                                              ; preds = %107
  %114 = load ptr, ptr %5, align 8, !tbaa !16
  %115 = call ptr @If_ObjFanin0(ptr noundef %114)
  %116 = call float @If_ObjArrTime(ptr noundef %115)
  store float %116, ptr %6, align 4, !tbaa !21
  br label %117

117:                                              ; preds = %113, %107
  br label %118

118:                                              ; preds = %117
  %119 = load i32, ptr %7, align 4, !tbaa !14
  %120 = add nsw i32 %119, 1
  store i32 %120, ptr %7, align 4, !tbaa !14
  br label %92, !llvm.loop !77

121:                                              ; preds = %105
  br label %153

122:                                              ; preds = %76
  store i32 0, ptr %7, align 4, !tbaa !14
  br label %123

123:                                              ; preds = %149, %122
  %124 = load i32, ptr %7, align 4, !tbaa !14
  %125 = load ptr, ptr %3, align 8, !tbaa !3
  %126 = getelementptr inbounds nuw %struct.If_Man_t_, ptr %125, i32 0, i32 4
  %127 = load ptr, ptr %126, align 8, !tbaa !75
  %128 = call i32 @Vec_PtrSize(ptr noundef %127)
  %129 = icmp slt i32 %124, %128
  br i1 %129, label %130, label %136

130:                                              ; preds = %123
  %131 = load ptr, ptr %3, align 8, !tbaa !3
  %132 = getelementptr inbounds nuw %struct.If_Man_t_, ptr %131, i32 0, i32 4
  %133 = load ptr, ptr %132, align 8, !tbaa !75
  %134 = load i32, ptr %7, align 4, !tbaa !14
  %135 = call ptr @Vec_PtrEntry(ptr noundef %133, i32 noundef %134)
  store ptr %135, ptr %5, align 8, !tbaa !16
  br label %136

136:                                              ; preds = %130, %123
  %137 = phi i1 [ false, %123 ], [ true, %130 ]
  br i1 %137, label %138, label %152

138:                                              ; preds = %136
  %139 = load float, ptr %6, align 4, !tbaa !21
  %140 = load ptr, ptr %5, align 8, !tbaa !16
  %141 = call ptr @If_ObjFanin0(ptr noundef %140)
  %142 = call float @If_ObjArrTime(ptr noundef %141)
  %143 = fcmp olt float %139, %142
  br i1 %143, label %144, label %148

144:                                              ; preds = %138
  %145 = load ptr, ptr %5, align 8, !tbaa !16
  %146 = call ptr @If_ObjFanin0(ptr noundef %145)
  %147 = call float @If_ObjArrTime(ptr noundef %146)
  store float %147, ptr %6, align 4, !tbaa !21
  br label %148

148:                                              ; preds = %144, %138
  br label %149

149:                                              ; preds = %148
  %150 = load i32, ptr %7, align 4, !tbaa !14
  %151 = add nsw i32 %150, 1
  store i32 %151, ptr %7, align 4, !tbaa !14
  br label %123, !llvm.loop !78

152:                                              ; preds = %136
  br label %153

153:                                              ; preds = %152, %121
  br label %154

154:                                              ; preds = %153, %75
  %155 = load float, ptr %6, align 4, !tbaa !21
  call void @llvm.lifetime.end.p0(i64 4, ptr %7) #7
  call void @llvm.lifetime.end.p0(i64 4, ptr %6) #7
  call void @llvm.lifetime.end.p0(i64 8, ptr %5) #7
  ret float %155
}