; Function Attrs: nounwind uwtable
define float @If_ManDelayMax(ptr noundef readonly captures(none) %0, i32 noundef %1) local_unnamed_addr #3 {
  %3 = getelementptr inbounds nuw i8, ptr %0, i64 8
  %4 = load ptr, ptr %3, align 8, !tbaa !35
  %5 = getelementptr inbounds nuw i8, ptr %4, i64 68
  %6 = load i32, ptr %5, align 4, !tbaa !65
  %.not = icmp eq i32 %6, 0
  br i1 %.not, label %18, label %7

7:                                                ; preds = %2
  %8 = getelementptr inbounds nuw i8, ptr %4, i64 248
  %9 = load i32, ptr %8, align 8, !tbaa !66
  %10 = icmp eq i32 %9, 0
  br i1 %10, label %15, label %11

11:                                               ; preds = %7
  %12 = getelementptr inbounds nuw i8, ptr %4, i64 252
  %13 = load i32, ptr %12, align 4, !tbaa !67
  %14 = icmp eq i32 %13, 0
  br i1 %14, label %15, label %.thread

15:                                               ; preds = %11, %7
  tail call void (i32, ptr, ...) @Abc_Print(i32 poison, ptr noundef nonnull @.str)
  %16 = load ptr, ptr %3, align 8, !tbaa !35
  %17 = getelementptr inbounds nuw i8, ptr %16, i64 68
  store i32 0, ptr %17, align 4, !tbaa !65
  br label %18

18:                                               ; preds = %15, %2
  %19 = phi ptr [ %16, %15 ], [ %4, %2 ]
  %.not41 = icmp eq i32 %1, 0
  br i1 %.not41, label %.preheader, label %20

.thread:                                          ; preds = %11
  %.not4184 = icmp eq i32 %1, 0
  br i1 %.not4184, label %46, label %20

20:                                               ; preds = %.thread, %18
  %21 = phi ptr [ %4, %.thread ], [ %19, %18 ]
  %22 = getelementptr inbounds nuw i8, ptr %21, i64 260
  %23 = load i32, ptr %22, align 4, !tbaa !68
  %24 = getelementptr i8, ptr %0, i64 76
  %.val45 = load i32, ptr %24, align 4, !tbaa !26
  %25 = getelementptr inbounds nuw i8, ptr %21, i64 252
  %26 = load i32, ptr %25, align 4, !tbaa !67
  %27 = sub nsw i32 %.val45, %26
  %28 = icmp slt i32 %23, %27
  br i1 %28, label %.lr.ph, label %.critedge

.lr.ph:                                           ; preds = %20
  %29 = getelementptr inbounds nuw i8, ptr %0, i64 32
  %30 = load ptr, ptr %29, align 8, !tbaa !69
  %31 = getelementptr i8, ptr %30, i64 8
  %.val = load ptr, ptr %31, align 8, !tbaa !24
  %32 = sext i32 %23 to i64
  %33 = sext i32 %27 to i64
  br label %34

34:                                               ; preds = %.lr.ph, %34
  %indvars.iv = phi i64 [ %32, %.lr.ph ], [ %indvars.iv.next, %34 ]
  %.03863 = phi float [ 0xC415AF1D80000000, %.lr.ph ], [ %.139, %34 ]
  %35 = getelementptr inbounds ptr, ptr %.val, i64 %indvars.iv
  %36 = load ptr, ptr %35, align 8, !tbaa !27
  %37 = getelementptr i8, ptr %36, i64 24
  %.val47 = load ptr, ptr %37, align 8, !tbaa !70
  %38 = getelementptr i8, ptr %.val47, i64 92
  %.val53 = load float, ptr %38, align 4, !tbaa !30
  %39 = fcmp olt float %.03863, %.val53
  %.139 = select i1 %39, float %.val53, float %.03863
  %indvars.iv.next = add nsw i64 %indvars.iv, 1
  %40 = icmp slt i64 %indvars.iv.next, %33
  br i1 %40, label %34, label %.critedge, !llvm.loop !71

.preheader:                                       ; preds = %18
  %41 = getelementptr inbounds nuw i8, ptr %0, i64 32
  %42 = load ptr, ptr %41, align 8, !tbaa !69
  %43 = getelementptr i8, ptr %42, i64 4
  %.val60 = load i32, ptr %43, align 4, !tbaa !72
  %44 = icmp sgt i32 %.val60, 0
  br i1 %44, label %.lr.ph71, label %.critedge

.lr.ph71:                                         ; preds = %.preheader
  %45 = getelementptr i8, ptr %42, i64 8
  %.val44 = load ptr, ptr %45, align 8, !tbaa !24
  %wide.trip.count = zext nneg i32 %.val60 to i64
  br label %63

46:                                               ; preds = %.thread
  %47 = getelementptr i8, ptr %0, i64 76
  %.val46 = load i32, ptr %47, align 4, !tbaa !26
  %48 = getelementptr inbounds nuw i8, ptr %4, i64 252
  %49 = load i32, ptr %48, align 4, !tbaa !67
  %50 = sub nsw i32 %.val46, %49
  %51 = getelementptr inbounds nuw i8, ptr %0, i64 32
  %52 = load ptr, ptr %51, align 8, !tbaa !69
  %53 = getelementptr i8, ptr %52, i64 4
  %.val59 = load i32, ptr %53, align 4, !tbaa !72
  %54 = icmp slt i32 %50, %.val59
  br i1 %54, label %.lr.ph67, label %.critedge

.lr.ph67:                                         ; preds = %46
  %55 = getelementptr i8, ptr %52, i64 8
  %.val43 = load ptr, ptr %55, align 8, !tbaa !24
  %56 = sext i32 %50 to i64
  br label %57

57:                                               ; preds = %.lr.ph67, %57
  %indvars.iv76 = phi i64 [ %56, %.lr.ph67 ], [ %indvars.iv.next77, %57 ]
  %.365 = phi float [ 0xC415AF1D80000000, %.lr.ph67 ], [ %.4, %57 ]
  %58 = getelementptr inbounds ptr, ptr %.val43, i64 %indvars.iv76
  %59 = load ptr, ptr %58, align 8, !tbaa !27
  %60 = getelementptr i8, ptr %59, i64 24
  %.val49 = load ptr, ptr %60, align 8, !tbaa !70
  %61 = getelementptr i8, ptr %.val49, i64 92
  %.val55 = load float, ptr %61, align 4, !tbaa !30
  %62 = fcmp olt float %.365, %.val55
  %.4 = select i1 %62, float %.val55, float %.365
  %indvars.iv.next77 = add nsw i64 %indvars.iv76, 1
  %lftr.wideiv = trunc i64 %indvars.iv.next77 to i32
  %exitcond.not = icmp eq i32 %.val59, %lftr.wideiv
  br i1 %exitcond.not, label %.critedge, label %57, !llvm.loop !73

63:                                               ; preds = %.lr.ph71, %63
  %indvars.iv79 = phi i64 [ 0, %.lr.ph71 ], [ %indvars.iv.next80, %63 ]
  %.569 = phi float [ 0xC415AF1D80000000, %.lr.ph71 ], [ %.6, %63 ]
  %64 = getelementptr inbounds nuw ptr, ptr %.val44, i64 %indvars.iv79
  %65 = load ptr, ptr %64, align 8, !tbaa !27
  %66 = getelementptr i8, ptr %65, i64 24
  %.val51 = load ptr, ptr %66, align 8, !tbaa !70
  %67 = getelementptr i8, ptr %.val51, i64 92
  %.val57 = load float, ptr %67, align 4, !tbaa !30
  %68 = fcmp olt float %.569, %.val57
  %.6 = select i1 %68, float %.val57, float %.569
  %indvars.iv.next80 = add nuw nsw i64 %indvars.iv79, 1
  %exitcond82.not = icmp eq i64 %indvars.iv.next80, %wide.trip.count
  br i1 %exitcond82.not, label %.critedge, label %63, !llvm.loop !74

.critedge:                                        ; preds = %57, %34, %63, %20, %46, %.preheader
  %.240 = phi float [ 0xC415AF1D80000000, %.preheader ], [ 0xC415AF1D80000000, %46 ], [ 0xC415AF1D80000000, %20 ], [ %.6, %63 ], [ %.139, %34 ], [ %.4, %57 ]
  ret float %.240
}